target datalayout = "e-m:e-p270:32:32-p271:32:32-p272:64:64-i64:64-i128:128-f80:128-n8:16:32:64-S128"
target triple = "x86_64-unknown-linux-gnu"

%"struct.icu_75::CollationSettings" = type <{ %"class.icu_75::SharedObject", i32, i32, ptr, i32, [4 x i8], ptr, i32, [4 x i8], ptr, i32, i32, i32, [384 x i16], [4 x i8] }>
%"class.icu_75::SharedObject" = type { %"class.icu_75::UObject", i32, %"struct.std::atomic", ptr }
%"class.icu_75::UObject" = type { ptr }
%"struct.std::atomic" = type { %"struct.std::__atomic_base" }
%"struct.std::__atomic_base" = type { i32 }

; Function Attrs: mustprogress nounwind uwtable
define noundef zeroext i1 @_ZNK6icu_7517CollationSettingseqERKS0_(ptr noundef nonnull align 8 dereferenceable(852) %this, ptr noundef nonnull align 8 dereferenceable(852) %other) #1 align 2 {
entry:
  %retval = alloca i1, align 1
  %this.addr = alloca ptr, align 8
  %other.addr = alloca ptr, align 8
  %i = alloca i32, align 4
  store ptr %this, ptr %this.addr, align 8
  store ptr %other, ptr %other.addr, align 8
  %this1 = load ptr, ptr %this.addr, align 8
  %options = getelementptr inbounds %"struct.icu_75::CollationSettings", ptr %this1, i32 0, i32 1
  %0 = load i32, ptr %options, align 8
  %1 = load ptr, ptr %other.addr, align 8
  %options2 = getelementptr inbounds %"struct.icu_75::CollationSettings", ptr %1, i32 0, i32 1
  %2 = load i32, ptr %options2, align 8
  %cmp = icmp ne i32 %0, %2
  br i1 %cmp, label %if.then, label %if.end

if.then:                                          ; preds = %entry
  store i1 false, ptr %retval, align 1
  br label %return

if.end:                                           ; preds = %entry
  %options3 = getelementptr inbounds %"struct.icu_75::CollationSettings", ptr %this1, i32 0, i32 1
  %3 = load i32, ptr %options3, align 8
  %and = and i32 %3, 12
  %cmp4 = icmp ne i32 %and, 0
  br i1 %cmp4, label %land.lhs.true, label %if.end8

land.lhs.true:                                    ; preds = %if.end
  %variableTop = getelementptr inbounds %"struct.icu_75::CollationSettings", ptr %this1, i32 0, i32 2
  %4 = load i32, ptr %variableTop, align 4
  %5 = load ptr, ptr %other.addr, align 8
  %variableTop5 = getelementptr inbounds %"struct.icu_75::CollationSettings", ptr %5, i32 0, i32 2
  %6 = load i32, ptr %variableTop5, align 4
  %cmp6 = icmp ne i32 %4, %6
  br i1 %cmp6, label %if.then7, label %if.end8

if.then7:                                         ; preds = %land.lhs.true
  store i1 false, ptr %retval, align 1
  br label %return

if.end8:                                          ; preds = %land.lhs.true, %if.end
  %reorderCodesLength = getelementptr inbounds %"struct.icu_75::CollationSettings", ptr %this1, i32 0, i32 10
  %7 = load i32, ptr %reorderCodesLength, align 8
  %8 = load ptr, ptr %other.addr, align 8
  %reorderCodesLength9 = getelementptr inbounds %"struct.icu_75::CollationSettings", ptr %8, i32 0, i32 10
  %9 = load i32, ptr %reorderCodesLength9, align 8
  %cmp10 = icmp ne i32 %7, %9
  br i1 %cmp10, label %if.then11, label %if.end12

if.then11:                                        ; preds = %if.end8
  store i1 false, ptr %retval, align 1
  br label %return

if.end12:                                         ; preds = %if.end8
  store i32 0, ptr %i, align 4
  br label %for.cond

for.cond:                                         ; preds = %for.inc, %if.end12
  %10 = load i32, ptr %i, align 4
  %reorderCodesLength13 = getelementptr inbounds %"struct.icu_75::CollationSettings", ptr %this1, i32 0, i32 10
  %11 = load i32, ptr %reorderCodesLength13, align 8
  %cmp14 = icmp slt i32 %10, %11
  br i1 %cmp14, label %for.body, label %for.end

for.body:                                         ; preds = %for.cond
  %reorderCodes = getelementptr inbounds %"struct.icu_75::CollationSettings", ptr %this1, i32 0, i32 9
  %12 = load ptr, ptr %reorderCodes, align 8
  %13 = load i32, ptr %i, align 4
  %idxprom = sext i32 %13 to i64
  %arrayidx = getelementptr inbounds i32, ptr %12, i64 %idxprom
  %14 = load i32, ptr %arrayidx, align 4
  %15 = load ptr, ptr %other.addr, align 8
  %reorderCodes15 = getelementptr inbounds %"struct.icu_75::CollationSettings", ptr %15, i32 0, i32 9
  %16 = load ptr, ptr %reorderCodes15, align 8
  %17 = load i32, ptr %i, align 4
  %idxprom16 = sext i32 %17 to i64
  %arrayidx17 = getelementptr inbounds i32, ptr %16, i64 %idxprom16
  %18 = load i32, ptr %arrayidx17, align 4
  %cmp18 = icmp ne i32 %14, %18
  br i1 %cmp18, label %if.then19, label %if.end20

if.then19:                                        ; preds = %for.body
  store i1 false, ptr %retval, align 1
  br label %return

if.end20:                                         ; preds = %for.body
  br label %for.inc

for.inc:                                          ; preds = %if.end20
  %19 = load i32, ptr %i, align 4
  %inc = add nsw i32 %19, 1
  store i32 %inc, ptr %i, align 4
  br label %for.cond, !llvm.loop !4

for.end:                                          ; preds = %for.cond
  store i1 true, ptr %retval, align 1
  br label %return

return:                                           ; preds = %for.end, %if.then19, %if.then11, %if.then7, %if.then
  %20 = load i1, ptr %retval, align 1
  ret i1 %20
}