; Function Attrs: mustprogress nofree norecurse nosync nounwind willreturn memory(read, inaccessiblemem: none) uwtable
define noundef zeroext i1 @_ZNK6icu_7517CollationSettingseqERKS0_(ptr nocapture noundef nonnull readonly align 8 dereferenceable(852) %this, ptr nocapture noundef nonnull readonly align 8 dereferenceable(852) %other) local_unnamed_addr #6 align 2 {
entry:
  %options = getelementptr inbounds i8, ptr %this, i64 24
  %0 = load i32, ptr %options, align 8
  %options2 = getelementptr inbounds i8, ptr %other, i64 24
  %1 = load i32, ptr %options2, align 8
  %cmp.not = icmp eq i32 %0, %1
  br i1 %cmp.not, label %if.end, label %return

if.end:                                           ; preds = %entry
  %and = and i32 %0, 12
  %cmp4.not = icmp eq i32 %and, 0
  br i1 %cmp4.not, label %if.end8, label %land.lhs.true

land.lhs.true:                                    ; preds = %if.end
  %variableTop = getelementptr inbounds i8, ptr %this, i64 28
  %2 = load i32, ptr %variableTop, align 4
  %variableTop5 = getelementptr inbounds i8, ptr %other, i64 28
  %3 = load i32, ptr %variableTop5, align 4
  %cmp6.not = icmp eq i32 %2, %3
  br i1 %cmp6.not, label %if.end8, label %return

if.end8:                                          ; preds = %land.lhs.true, %if.end
  %reorderCodesLength = getelementptr inbounds i8, ptr %this, i64 72
  %4 = load i32, ptr %reorderCodesLength, align 8
  %reorderCodesLength9 = getelementptr inbounds i8, ptr %other, i64 72
  %5 = load i32, ptr %reorderCodesLength9, align 8
  %cmp10.not = icmp eq i32 %4, %5
  br i1 %cmp10.not, label %for.cond.preheader, label %return

for.cond.preheader:                               ; preds = %if.end8
  %cmp147 = icmp sgt i32 %4, 0
  br i1 %cmp147, label %for.body.lr.ph, label %return

for.body.lr.ph:                                   ; preds = %for.cond.preheader
  %reorderCodes = getelementptr inbounds i8, ptr %this, i64 64
  %6 = load ptr, ptr %reorderCodes, align 8
  %reorderCodes15 = getelementptr inbounds i8, ptr %other, i64 64
  %7 = load ptr, ptr %reorderCodes15, align 8
  %wide.trip.count = zext nneg i32 %4 to i64
  br label %for.body

for.body:                                         ; preds = %for.body, %for.body.lr.ph
  %indvars.iv = phi i64 [ 0, %for.body.lr.ph ], [ %indvars.iv.next, %for.body ]
  %arrayidx = getelementptr inbounds i32, ptr %6, i64 %indvars.iv
  %8 = load i32, ptr %arrayidx, align 4
  %arrayidx17 = getelementptr inbounds i32, ptr %7, i64 %indvars.iv
  %9 = load i32, ptr %arrayidx17, align 4
  %cmp18.not = icmp eq i32 %8, %9
  %indvars.iv.next = add nuw nsw i64 %indvars.iv, 1
  %exitcond.not = icmp ne i64 %indvars.iv.next, %wide.trip.count
  %or.cond.not = select i1 %cmp18.not, i1 %exitcond.not, i1 false
  br i1 %or.cond.not, label %for.body, label %return, !llvm.loop !4

return:                                           ; preds = %for.body, %for.cond.preheader, %if.end8, %land.lhs.true, %entry
  %retval.0 = phi i1 [ false, %entry ], [ false, %land.lhs.true ], [ false, %if.end8 ], [ true, %for.cond.preheader ], [ %cmp18.not, %for.body ]
  ret i1 %retval.0
}